target datalayout = "e-m:e-p270:32:32-p271:32:32-p272:64:64-i64:64-i128:128-f80:128-n8:16:32:64-S128"
target triple = "x86_64-unknown-linux-gnu"

%"class.std::__shared_count" = type { ptr }
%"class.std::shared_ptr.8" = type { %"class.std::__shared_ptr.9" }
%"class.std::__shared_ptr.9" = type { ptr, %"class.std::__shared_count" }
%"class.std::_Sp_counted_base" = type { ptr, i32, i32 }
%"class.OpenColorIO_v2_4dev::(anonymous namespace)::ECRendererBase" = type { %"class.OpenColorIO_v2_4dev::OpCPU", %"class.std::shared_ptr.8", %"class.std::shared_ptr.8", %"class.std::shared_ptr.8", float, float }
%"class.OpenColorIO_v2_4dev::OpCPU" = type { ptr }
%"class.std::shared_ptr.37" = type { %"class.std::__shared_ptr.38" }
%"class.std::__shared_ptr.38" = type { ptr, %"class.std::__shared_count" }
%"class.OpenColorIO_v2_4dev::DynamicPropertyImpl" = type <{ %"class.OpenColorIO_v2_4dev::DynamicProperty", i32, i8, [3 x i8] }>
%"class.OpenColorIO_v2_4dev::DynamicProperty" = type { ptr }

@_ZTIN19OpenColorIO_v2_4dev9ExceptionE = external constant ptr
@__libc_single_threaded = external global i8, align 1
@.str.24 = private unnamed_addr constant [57 x i8] c"Dynamic property type not supported by ExposureContrast.\00", align 1
@.str.25 = private unnamed_addr constant [42 x i8] c"ExposureContrast property is not dynamic.\00", align 1

; Function Attrs: noreturn nounwind uwtable
define linkonce_odr hidden void @__clang_call_terminate(ptr noundef %0) #7 comdat {
  %2 = call ptr @__cxa_begin_catch(ptr %0) #3
  call void @_ZSt9terminatev() #18
  unreachable
}

; Function Attrs: mustprogress uwtable
define linkonce_odr hidden void @_ZNSt16_Sp_counted_baseILN9__gnu_cxx12_Lock_policyE2EE15_M_add_ref_copyEv(ptr noundef nonnull align 8 dereferenceable(16) %this) #6 comdat align 2 {
entry:
  %__mem.addr.i4 = alloca ptr, align 8
  %__val.addr.i5 = alloca i32, align 4
  %.atomictmp.i = alloca i32, align 4
  %atomic-temp.i = alloca i32, align 4
  %__mem.addr.i2 = alloca ptr, align 8
  %__val.addr.i3 = alloca i32, align 4
  %__mem.addr.i = alloca ptr, align 8
  %__val.addr.i = alloca i32, align 4
  %this.addr = alloca ptr, align 8
  store ptr %this, ptr %this.addr, align 8
  %this1 = load ptr, ptr %this.addr, align 8
  %_M_use_count = getelementptr inbounds %"class.std::_Sp_counted_base", ptr %this1, i32 0, i32 1
  store ptr %_M_use_count, ptr %__mem.addr.i, align 8
  store i32 1, ptr %__val.addr.i, align 4
  %0 = load i8, ptr @__libc_single_threaded, align 1
  %tobool.i.i = icmp ne i8 %0, 0
  br i1 %tobool.i.i, label %if.then.i, label %if.else.i

if.then.i:                                        ; preds = %entry
  %1 = load ptr, ptr %__mem.addr.i, align 8
  %2 = load i32, ptr %__val.addr.i, align 4
  store ptr %1, ptr %__mem.addr.i2, align 8
  store i32 %2, ptr %__val.addr.i3, align 4
  %3 = load i32, ptr %__val.addr.i3, align 4
  %4 = load ptr, ptr %__mem.addr.i2, align 8
  %5 = load i32, ptr %4, align 4
  %add.i = add nsw i32 %5, %3
  store i32 %add.i, ptr %4, align 4
  br label %_ZN9__gnu_cxx21__atomic_add_dispatchEPii.exit

if.else.i:                                        ; preds = %entry
  %6 = load ptr, ptr %__mem.addr.i, align 8
  %7 = load i32, ptr %__val.addr.i, align 4
  store ptr %6, ptr %__mem.addr.i4, align 8
  store i32 %7, ptr %__val.addr.i5, align 4
  %8 = load ptr, ptr %__mem.addr.i4, align 8
  %9 = load i32, ptr %__val.addr.i5, align 4
  store i32 %9, ptr %.atomictmp.i, align 4
  %10 = load i32, ptr %.atomictmp.i, align 4
  %11 = atomicrmw volatile add ptr %8, i32 %10 acq_rel, align 4
  store i32 %11, ptr %atomic-temp.i, align 4
  br label %_ZN9__gnu_cxx21__atomic_add_dispatchEPii.exit

_ZN9__gnu_cxx21__atomic_add_dispatchEPii.exit:    ; preds = %if.else.i, %if.then.i
  ret void
}

; Function Attrs: mustprogress nounwind uwtable
define linkonce_odr hidden void @_ZNSt14__shared_countILN9__gnu_cxx12_Lock_policyE2EEC2ERKS2_(ptr noundef nonnull align 8 dereferenceable(8) %this, ptr noundef nonnull align 8 dereferenceable(8) %__r) unnamed_addr #5 comdat align 2 personality ptr @__gxx_personality_v0 {
entry:
  %this.addr = alloca ptr, align 8
  %__r.addr = alloca ptr, align 8
  store ptr %this, ptr %this.addr, align 8
  store ptr %__r, ptr %__r.addr, align 8
  %this1 = load ptr, ptr %this.addr, align 8
  %_M_pi = getelementptr inbounds %"class.std::__shared_count", ptr %this1, i32 0, i32 0
  %0 = load ptr, ptr %__r.addr, align 8
  %_M_pi2 = getelementptr inbounds %"class.std::__shared_count", ptr %0, i32 0, i32 0
  %1 = load ptr, ptr %_M_pi2, align 8
  store ptr %1, ptr %_M_pi, align 8
  %_M_pi3 = getelementptr inbounds %"class.std::__shared_count", ptr %this1, i32 0, i32 0
  %2 = load ptr, ptr %_M_pi3, align 8
  %cmp = icmp ne ptr %2, null
  br i1 %cmp, label %if.then, label %if.end

if.then:                                          ; preds = %entry
  %_M_pi4 = getelementptr inbounds %"class.std::__shared_count", ptr %this1, i32 0, i32 0
  %3 = load ptr, ptr %_M_pi4, align 8
  invoke void @_ZNSt16_Sp_counted_baseILN9__gnu_cxx12_Lock_policyE2EE15_M_add_ref_copyEv(ptr noundef nonnull align 8 dereferenceable(16) %3)
          to label %invoke.cont unwind label %terminate.lpad

invoke.cont:                                      ; preds = %if.then
  br label %if.end

if.end:                                           ; preds = %invoke.cont, %entry
  ret void

terminate.lpad:                                   ; preds = %if.then
  %4 = landingpad { ptr, i32 }
          catch ptr null
  %5 = extractvalue { ptr, i32 } %4, 0
  call void @__clang_call_terminate(ptr %5) #18
  unreachable
}

; Function Attrs: mustprogress nounwind uwtable
define linkonce_odr hidden noundef ptr @_ZNKSt12__shared_ptrIN19OpenColorIO_v2_4dev25DynamicPropertyDoubleImplELN9__gnu_cxx12_Lock_policyE2EE3getEv(ptr noundef nonnull align 8 dereferenceable(16) %this) #5 comdat align 2 {
entry:
  %this.addr = alloca ptr, align 8
  store ptr %this, ptr %this.addr, align 8
  %this1 = load ptr, ptr %this.addr, align 8
  %_M_ptr = getelementptr inbounds %"class.std::__shared_ptr.9", ptr %this1, i32 0, i32 0
  %0 = load ptr, ptr %_M_ptr, align 8
  ret ptr %0
}

; Function Attrs: mustprogress nounwind uwtable
define linkonce_odr hidden void @_ZNSt12__shared_ptrIN19OpenColorIO_v2_4dev15DynamicPropertyELN9__gnu_cxx12_Lock_policyE2EEC2INS0_25DynamicPropertyDoubleImplEvEERKS_IT_LS3_2EE(ptr noundef nonnull align 8 dereferenceable(16) %this, ptr noundef nonnull align 8 dereferenceable(16) %__r) unnamed_addr #5 comdat align 2 {
entry:
  %this.addr = alloca ptr, align 8
  %__r.addr = alloca ptr, align 8
  store ptr %this, ptr %this.addr, align 8
  store ptr %__r, ptr %__r.addr, align 8
  %this1 = load ptr, ptr %this.addr, align 8
  %_M_ptr = getelementptr inbounds %"class.std::__shared_ptr.38", ptr %this1, i32 0, i32 0
  %0 = load ptr, ptr %__r.addr, align 8
  %_M_ptr2 = getelementptr inbounds %"class.std::__shared_ptr.9", ptr %0, i32 0, i32 0
  %1 = load ptr, ptr %_M_ptr2, align 8
  store ptr %1, ptr %_M_ptr, align 8
  %_M_refcount = getelementptr inbounds %"class.std::__shared_ptr.38", ptr %this1, i32 0, i32 1
  %2 = load ptr, ptr %__r.addr, align 8
  %_M_refcount3 = getelementptr inbounds %"class.std::__shared_ptr.9", ptr %2, i32 0, i32 1
  call void @_ZNSt14__shared_countILN9__gnu_cxx12_Lock_policyE2EEC2ERKS2_(ptr noundef nonnull align 8 dereferenceable(8) %_M_refcount, ptr noundef nonnull align 8 dereferenceable(8) %_M_refcount3) #3
  ret void
}

; Function Attrs: mustprogress nounwind uwtable
define linkonce_odr hidden noundef ptr @_ZNKSt19__shared_ptr_accessIN19OpenColorIO_v2_4dev25DynamicPropertyDoubleImplELN9__gnu_cxx12_Lock_policyE2ELb0ELb0EE6_M_getEv(ptr noundef nonnull align 1 dereferenceable(1) %this) #5 comdat align 2 {
entry:
  %this.addr = alloca ptr, align 8
  store ptr %this, ptr %this.addr, align 8
  %this1 = load ptr, ptr %this.addr, align 8
  %call = call noundef ptr @_ZNKSt12__shared_ptrIN19OpenColorIO_v2_4dev25DynamicPropertyDoubleImplELN9__gnu_cxx12_Lock_policyE2EE3getEv(ptr noundef nonnull align 8 dereferenceable(16) %this1) #3
  ret ptr %call
}

; Function Attrs: mustprogress nounwind uwtable
define linkonce_odr hidden void @_ZNSt10shared_ptrIN19OpenColorIO_v2_4dev15DynamicPropertyEEC2INS0_25DynamicPropertyDoubleImplEvEERKS_IT_E(ptr noundef nonnull align 8 dereferenceable(16) %this, ptr noundef nonnull align 8 dereferenceable(16) %__r) unnamed_addr #5 comdat align 2 {
entry:
  %this.addr = alloca ptr, align 8
  %__r.addr = alloca ptr, align 8
  store ptr %this, ptr %this.addr, align 8
  store ptr %__r, ptr %__r.addr, align 8
  %this1 = load ptr, ptr %this.addr, align 8
  %0 = load ptr, ptr %__r.addr, align 8
  call void @_ZNSt12__shared_ptrIN19OpenColorIO_v2_4dev15DynamicPropertyELN9__gnu_cxx12_Lock_policyE2EEC2INS0_25DynamicPropertyDoubleImplEvEERKS_IT_LS3_2EE(ptr noundef nonnull align 8 dereferenceable(16) %this1, ptr noundef nonnull align 8 dereferenceable(16) %0) #3
  ret void
}

; Function Attrs: mustprogress nounwind uwtable
define linkonce_odr hidden noundef zeroext i1 @_ZNK19OpenColorIO_v2_4dev19DynamicPropertyImpl9isDynamicEv(ptr noundef nonnull align 8 dereferenceable(13) %this) #5 comdat align 2 {
entry:
  %this.addr = alloca ptr, align 8
  store ptr %this, ptr %this.addr, align 8
  %this1 = load ptr, ptr %this.addr, align 8
  %m_isDynamic = getelementptr inbounds %"class.OpenColorIO_v2_4dev::DynamicPropertyImpl", ptr %this1, i32 0, i32 2
  %0 = load i8, ptr %m_isDynamic, align 4
  %tobool = trunc i8 %0 to i1
  ret i1 %tobool
}

; Function Attrs: mustprogress nounwind uwtable
define linkonce_odr hidden noundef ptr @_ZNKSt19__shared_ptr_accessIN19OpenColorIO_v2_4dev25DynamicPropertyDoubleImplELN9__gnu_cxx12_Lock_policyE2ELb0ELb0EEptEv(ptr noundef nonnull align 1 dereferenceable(1) %this) #5 comdat align 2 {
entry:
  %this.addr = alloca ptr, align 8
  store ptr %this, ptr %this.addr, align 8
  %this1 = load ptr, ptr %this.addr, align 8
  %call = call noundef ptr @_ZNKSt19__shared_ptr_accessIN19OpenColorIO_v2_4dev25DynamicPropertyDoubleImplELN9__gnu_cxx12_Lock_policyE2ELb0ELb0EE6_M_getEv(ptr noundef nonnull align 1 dereferenceable(1) %this1) #3
  ret ptr %call
}

; Function Attrs: mustprogress uwtable
define internal void @_ZNK19OpenColorIO_v2_4dev12_GLOBAL__N_114ECRendererBase18getDynamicPropertyENS_19DynamicPropertyTypeE(ptr noalias sret(%"class.std::shared_ptr.37") align 8 %agg.result, ptr noundef nonnull align 8 dereferenceable(64) %this, i32 noundef %type) unnamed_addr #6 align 2 personality ptr @__gxx_personality_v0 {
entry:
  %result.ptr = alloca ptr, align 8
  %this.addr = alloca ptr, align 8
  %type.addr = alloca i32, align 4
  %exn.slot = alloca ptr, align 8
  %ehselector.slot = alloca i32, align 4
  store ptr %agg.result, ptr %result.ptr, align 8
  store ptr %this, ptr %this.addr, align 8
  store i32 %type, ptr %type.addr, align 4
  %this1 = load ptr, ptr %this.addr, align 8
  %0 = load i32, ptr %type.addr, align 4
  switch i32 %0, label %sw.default [
    i32 0, label %sw.bb
    i32 1, label %sw.bb4
    i32 2, label %sw.bb10
    i32 3, label %sw.bb16
    i32 4, label %sw.bb16
    i32 5, label %sw.bb16
  ]

sw.bb:                                            ; preds = %entry
  %m_exposure = getelementptr inbounds %"class.OpenColorIO_v2_4dev::(anonymous namespace)::ECRendererBase", ptr %this1, i32 0, i32 1
  %call = call noundef ptr @_ZNKSt19__shared_ptr_accessIN19OpenColorIO_v2_4dev25DynamicPropertyDoubleImplELN9__gnu_cxx12_Lock_policyE2ELb0ELb0EEptEv(ptr noundef nonnull align 1 dereferenceable(1) %m_exposure) #3
  %call2 = call noundef zeroext i1 @_ZNK19OpenColorIO_v2_4dev19DynamicPropertyImpl9isDynamicEv(ptr noundef nonnull align 8 dereferenceable(13) %call) #3
  br i1 %call2, label %if.then, label %if.end

if.then:                                          ; preds = %sw.bb
  %m_exposure3 = getelementptr inbounds %"class.OpenColorIO_v2_4dev::(anonymous namespace)::ECRendererBase", ptr %this1, i32 0, i32 1
  call void @_ZNSt10shared_ptrIN19OpenColorIO_v2_4dev15DynamicPropertyEEC2INS0_25DynamicPropertyDoubleImplEvEERKS_IT_E(ptr noundef nonnull align 8 dereferenceable(16) %agg.result, ptr noundef nonnull align 8 dereferenceable(16) %m_exposure3) #3
  br label %return

if.end:                                           ; preds = %sw.bb
  br label %sw.epilog

sw.bb4:                                           ; preds = %entry
  %m_contrast = getelementptr inbounds %"class.OpenColorIO_v2_4dev::(anonymous namespace)::ECRendererBase", ptr %this1, i32 0, i32 2
  %call5 = call noundef ptr @_ZNKSt19__shared_ptr_accessIN19OpenColorIO_v2_4dev25DynamicPropertyDoubleImplELN9__gnu_cxx12_Lock_policyE2ELb0ELb0EEptEv(ptr noundef nonnull align 1 dereferenceable(1) %m_contrast) #3
  %call6 = call noundef zeroext i1 @_ZNK19OpenColorIO_v2_4dev19DynamicPropertyImpl9isDynamicEv(ptr noundef nonnull align 8 dereferenceable(13) %call5) #3
  br i1 %call6, label %if.then7, label %if.end9

if.then7:                                         ; preds = %sw.bb4
  %m_contrast8 = getelementptr inbounds %"class.OpenColorIO_v2_4dev::(anonymous namespace)::ECRendererBase", ptr %this1, i32 0, i32 2
  call void @_ZNSt10shared_ptrIN19OpenColorIO_v2_4dev15DynamicPropertyEEC2INS0_25DynamicPropertyDoubleImplEvEERKS_IT_E(ptr noundef nonnull align 8 dereferenceable(16) %agg.result, ptr noundef nonnull align 8 dereferenceable(16) %m_contrast8) #3
  br label %return

if.end9:                                          ; preds = %sw.bb4
  br label %sw.epilog

sw.bb10:                                          ; preds = %entry
  %m_gamma = getelementptr inbounds %"class.OpenColorIO_v2_4dev::(anonymous namespace)::ECRendererBase", ptr %this1, i32 0, i32 3
  %call11 = call noundef ptr @_ZNKSt19__shared_ptr_accessIN19OpenColorIO_v2_4dev25DynamicPropertyDoubleImplELN9__gnu_cxx12_Lock_policyE2ELb0ELb0EEptEv(ptr noundef nonnull align 1 dereferenceable(1) %m_gamma) #3
  %call12 = call noundef zeroext i1 @_ZNK19OpenColorIO_v2_4dev19DynamicPropertyImpl9isDynamicEv(ptr noundef nonnull align 8 dereferenceable(13) %call11) #3
  br i1 %call12, label %if.then13, label %if.end15

if.then13:                                        ; preds = %sw.bb10
  %m_gamma14 = getelementptr inbounds %"class.OpenColorIO_v2_4dev::(anonymous namespace)::ECRendererBase", ptr %this1, i32 0, i32 3
  call void @_ZNSt10shared_ptrIN19OpenColorIO_v2_4dev15DynamicPropertyEEC2INS0_25DynamicPropertyDoubleImplEvEERKS_IT_E(ptr noundef nonnull align 8 dereferenceable(16) %agg.result, ptr noundef nonnull align 8 dereferenceable(16) %m_gamma14) #3
  br label %return

if.end15:                                         ; preds = %sw.bb10
  br label %sw.epilog

sw.bb16:                                          ; preds = %entry, %entry, %entry
  br label %sw.default

sw.default:                                       ; preds = %sw.bb16, %entry
  %exception = call ptr @__cxa_allocate_exception(i64 16) #3
  invoke void @_ZN19OpenColorIO_v2_4dev9ExceptionC1EPKc(ptr noundef nonnull align 8 dereferenceable(16) %exception, ptr noundef @.str.24)
          to label %invoke.cont unwind label %lpad

invoke.cont:                                      ; preds = %sw.default
  call void @__cxa_throw(ptr %exception, ptr @_ZTIN19OpenColorIO_v2_4dev9ExceptionE, ptr @_ZN19OpenColorIO_v2_4dev9ExceptionD1Ev) #17
  unreachable

lpad:                                             ; preds = %sw.default
  %1 = landingpad { ptr, i32 }
          cleanup
  %2 = extractvalue { ptr, i32 } %1, 0
  store ptr %2, ptr %exn.slot, align 8
  %3 = extractvalue { ptr, i32 } %1, 1
  store i32 %3, ptr %ehselector.slot, align 4
  call void @__cxa_free_exception(ptr %exception) #3
  br label %eh.resume

sw.epilog:                                        ; preds = %if.end15, %if.end9, %if.end
  %exception17 = call ptr @__cxa_allocate_exception(i64 16) #3
  invoke void @_ZN19OpenColorIO_v2_4dev9ExceptionC1EPKc(ptr noundef nonnull align 8 dereferenceable(16) %exception17, ptr noundef @.str.25)
          to label %invoke.cont19 unwind label %lpad18

invoke.cont19:                                    ; preds = %sw.epilog
  call void @__cxa_throw(ptr %exception17, ptr @_ZTIN19OpenColorIO_v2_4dev9ExceptionE, ptr @_ZN19OpenColorIO_v2_4dev9ExceptionD1Ev) #17
  unreachable

lpad18:                                           ; preds = %sw.epilog
  %4 = landingpad { ptr, i32 }
          cleanup
  %5 = extractvalue { ptr, i32 } %4, 0
  store ptr %5, ptr %exn.slot, align 8
  %6 = extractvalue { ptr, i32 } %4, 1
  store i32 %6, ptr %ehselector.slot, align 4
  call void @__cxa_free_exception(ptr %exception17) #3
  br label %eh.resume

return:                                           ; preds = %if.then13, %if.then7, %if.then
  ret void

eh.resume:                                        ; preds = %lpad18, %lpad
  %exn = load ptr, ptr %exn.slot, align 8
  %sel = load i32, ptr %ehselector.slot, align 4
  %lpad.val = insertvalue { ptr, i32 } poison, ptr %exn, 0
  %lpad.val20 = insertvalue { ptr, i32 } %lpad.val, i32 %sel, 1
  resume { ptr, i32 } %lpad.val20
}