; Function Attrs: mustprogress uwtable
define internal void @_ZNK19OpenColorIO_v2_4dev12_GLOBAL__N_114ECRendererBase18getDynamicPropertyENS_19DynamicPropertyTypeE(ptr noalias nocapture writeonly sret(%"class.std::shared_ptr.37") align 8 %agg.result, ptr nocapture noundef nonnull readonly align 8 dereferenceable(64) %this, i32 noundef %type) unnamed_addr #3 align 2 personality ptr @__gxx_personality_v0 {
entry:
  switch i32 %type, label %sw.default [
    i32 0, label %sw.bb
    i32 1, label %sw.bb4
    i32 2, label %sw.bb10
  ]

sw.bb:                                            ; preds = %entry
  %m_exposure = getelementptr inbounds i8, ptr %this, i64 8
  %0 = load ptr, ptr %m_exposure, align 8
  %m_isDynamic.i = getelementptr inbounds i8, ptr %0, i64 12
  %1 = load i8, ptr %m_isDynamic.i, align 4
  %2 = and i8 %1, 1
  %tobool.i.not = icmp eq i8 %2, 0
  br i1 %tobool.i.not, label %sw.epilog, label %if.then

if.then:                                          ; preds = %sw.bb
  store ptr %0, ptr %agg.result, align 8
  %_M_refcount.i.i = getelementptr inbounds i8, ptr %agg.result, i64 8
  %_M_refcount3.i.i = getelementptr inbounds i8, ptr %this, i64 16
  %3 = load ptr, ptr %_M_refcount3.i.i, align 8
  store ptr %3, ptr %_M_refcount.i.i, align 8
  %cmp.not.i.i.i = icmp eq ptr %3, null
  br i1 %cmp.not.i.i.i, label %return, label %if.then.i.i.i

if.then.i.i.i:                                    ; preds = %if.then
  %_M_use_count.i.i.i.i = getelementptr inbounds i8, ptr %3, i64 8
  %4 = load i8, ptr @__libc_single_threaded, align 1
  %tobool.i.i.not.i.i.i.i = icmp eq i8 %4, 0
  br i1 %tobool.i.i.not.i.i.i.i, label %if.else.i.i.i.i.i, label %if.then.i.i.i.i.i

if.then.i.i.i.i.i:                                ; preds = %if.then.i.i.i
  %5 = load i32, ptr %_M_use_count.i.i.i.i, align 4
  %add.i.i.i.i.i = add nsw i32 %5, 1
  store i32 %add.i.i.i.i.i, ptr %_M_use_count.i.i.i.i, align 4
  br label %return

if.else.i.i.i.i.i:                                ; preds = %if.then.i.i.i
  %6 = atomicrmw volatile add ptr %_M_use_count.i.i.i.i, i32 1 acq_rel, align 4
  br label %return

sw.bb4:                                           ; preds = %entry
  %m_contrast = getelementptr inbounds i8, ptr %this, i64 24
  %7 = load ptr, ptr %m_contrast, align 8
  %m_isDynamic.i2 = getelementptr inbounds i8, ptr %7, i64 12
  %8 = load i8, ptr %m_isDynamic.i2, align 4
  %9 = and i8 %8, 1
  %tobool.i3.not = icmp eq i8 %9, 0
  br i1 %tobool.i3.not, label %sw.epilog, label %if.then7

if.then7:                                         ; preds = %sw.bb4
  store ptr %7, ptr %agg.result, align 8
  %_M_refcount.i.i4 = getelementptr inbounds i8, ptr %agg.result, i64 8
  %_M_refcount3.i.i5 = getelementptr inbounds i8, ptr %this, i64 32
  %10 = load ptr, ptr %_M_refcount3.i.i5, align 8
  store ptr %10, ptr %_M_refcount.i.i4, align 8
  %cmp.not.i.i.i6 = icmp eq ptr %10, null
  br i1 %cmp.not.i.i.i6, label %return, label %if.then.i.i.i7

if.then.i.i.i7:                                   ; preds = %if.then7
  %_M_use_count.i.i.i.i8 = getelementptr inbounds i8, ptr %10, i64 8
  %11 = load i8, ptr @__libc_single_threaded, align 1
  %tobool.i.i.not.i.i.i.i9 = icmp eq i8 %11, 0
  br i1 %tobool.i.i.not.i.i.i.i9, label %if.else.i.i.i.i.i12, label %if.then.i.i.i.i.i10

if.then.i.i.i.i.i10:                              ; preds = %if.then.i.i.i7
  %12 = load i32, ptr %_M_use_count.i.i.i.i8, align 4
  %add.i.i.i.i.i11 = add nsw i32 %12, 1
  store i32 %add.i.i.i.i.i11, ptr %_M_use_count.i.i.i.i8, align 4
  br label %return

if.else.i.i.i.i.i12:                              ; preds = %if.then.i.i.i7
  %13 = atomicrmw volatile add ptr %_M_use_count.i.i.i.i8, i32 1 acq_rel, align 4
  br label %return

sw.bb10:                                          ; preds = %entry
  %m_gamma = getelementptr inbounds i8, ptr %this, i64 40
  %14 = load ptr, ptr %m_gamma, align 8
  %m_isDynamic.i14 = getelementptr inbounds i8, ptr %14, i64 12
  %15 = load i8, ptr %m_isDynamic.i14, align 4
  %16 = and i8 %15, 1
  %tobool.i15.not = icmp eq i8 %16, 0
  br i1 %tobool.i15.not, label %sw.epilog, label %if.then13

if.then13:                                        ; preds = %sw.bb10
  store ptr %14, ptr %agg.result, align 8
  %_M_refcount.i.i16 = getelementptr inbounds i8, ptr %agg.result, i64 8
  %_M_refcount3.i.i17 = getelementptr inbounds i8, ptr %this, i64 48
  %17 = load ptr, ptr %_M_refcount3.i.i17, align 8
  store ptr %17, ptr %_M_refcount.i.i16, align 8
  %cmp.not.i.i.i18 = icmp eq ptr %17, null
  br i1 %cmp.not.i.i.i18, label %return, label %if.then.i.i.i19

if.then.i.i.i19:                                  ; preds = %if.then13
  %_M_use_count.i.i.i.i20 = getelementptr inbounds i8, ptr %17, i64 8
  %18 = load i8, ptr @__libc_single_threaded, align 1
  %tobool.i.i.not.i.i.i.i21 = icmp eq i8 %18, 0
  br i1 %tobool.i.i.not.i.i.i.i21, label %if.else.i.i.i.i.i24, label %if.then.i.i.i.i.i22

if.then.i.i.i.i.i22:                              ; preds = %if.then.i.i.i19
  %19 = load i32, ptr %_M_use_count.i.i.i.i20, align 4
  %add.i.i.i.i.i23 = add nsw i32 %19, 1
  store i32 %add.i.i.i.i.i23, ptr %_M_use_count.i.i.i.i20, align 4
  br label %return

if.else.i.i.i.i.i24:                              ; preds = %if.then.i.i.i19
  %20 = atomicrmw volatile add ptr %_M_use_count.i.i.i.i20, i32 1 acq_rel, align 4
  br label %return

sw.default:                                       ; preds = %entry
  %exception = tail call ptr @__cxa_allocate_exception(i64 16) #23
  invoke void @_ZN19OpenColorIO_v2_4dev9ExceptionC1EPKc(ptr noundef nonnull align 8 dereferenceable(16) %exception, ptr noundef nonnull @.str.24)
          to label %invoke.cont unwind label %lpad

invoke.cont:                                      ; preds = %sw.default
  tail call void @__cxa_throw(ptr nonnull %exception, ptr nonnull @_ZTIN19OpenColorIO_v2_4dev9ExceptionE, ptr nonnull @_ZN19OpenColorIO_v2_4dev9ExceptionD1Ev) #24
  unreachable

lpad:                                             ; preds = %sw.default
  %21 = landingpad { ptr, i32 }
          cleanup
  br label %eh.resume

sw.epilog:                                        ; preds = %sw.bb10, %sw.bb4, %sw.bb
  %exception17 = tail call ptr @__cxa_allocate_exception(i64 16) #23
  invoke void @_ZN19OpenColorIO_v2_4dev9ExceptionC1EPKc(ptr noundef nonnull align 8 dereferenceable(16) %exception17, ptr noundef nonnull @.str.25)
          to label %invoke.cont19 unwind label %lpad18

invoke.cont19:                                    ; preds = %sw.epilog
  tail call void @__cxa_throw(ptr nonnull %exception17, ptr nonnull @_ZTIN19OpenColorIO_v2_4dev9ExceptionE, ptr nonnull @_ZN19OpenColorIO_v2_4dev9ExceptionD1Ev) #24
  unreachable

lpad18:                                           ; preds = %sw.epilog
  %22 = landingpad { ptr, i32 }
          cleanup
  br label %eh.resume

return:                                           ; preds = %if.else.i.i.i.i.i24, %if.then.i.i.i.i.i22, %if.then13, %if.else.i.i.i.i.i12, %if.then.i.i.i.i.i10, %if.then7, %if.else.i.i.i.i.i, %if.then.i.i.i.i.i, %if.then
  ret void

eh.resume:                                        ; preds = %lpad18, %lpad
  %exception17.sink = phi ptr [ %exception17, %lpad18 ], [ %exception, %lpad ]
  %.pn = phi { ptr, i32 } [ %22, %lpad18 ], [ %21, %lpad ]
  tail call void @__cxa_free_exception(ptr %exception17.sink) #23
  resume { ptr, i32 } %.pn
}